target datalayout = "e-m:e-p270:32:32-p271:32:32-p272:64:64-i64:64-i128:128-f80:128-n8:16:32:64-S128"
target triple = "x86_64-pc-linux-gnu"

%"class.icu_77::ErrorCode" = type <{ ptr, i32, [4 x i8] }>

@_ZTVN6icu_7716IcuToolErrorCodeE = unnamed_addr constant { [5 x ptr] } { [5 x ptr] [ptr null, ptr @_ZTIN6icu_7716IcuToolErrorCodeE, ptr @_ZN6icu_7716IcuToolErrorCodeD1Ev, ptr @_ZN6icu_7716IcuToolErrorCodeD0Ev, ptr @_ZNK6icu_7716IcuToolErrorCode13handleFailureEv] }, align 8

; Function Attrs: inlinehint mustprogress nounwind uwtable
define internal noundef signext i8 @_ZL9U_FAILURE10UErrorCode(i32 noundef %0) #7 {
  %2 = alloca i32, align 4
  store i32 %0, ptr %2, align 4, !tbaa !29
  %3 = load i32, ptr %2, align 4, !tbaa !29
  %4 = icmp sgt i32 %3, 0
  %5 = zext i1 %4 to i8
  ret i8 %5
}

; Function Attrs: mustprogress uwtable
define linkonce_odr noundef signext i8 @_ZNK6icu_779ErrorCode9isFailureEv(ptr noundef nonnull align 8 dereferenceable(12) %0) #1 comdat align 2 {
  %2 = alloca ptr, align 8
  store ptr %0, ptr %2, align 8, !tbaa !10
  %3 = load ptr, ptr %2, align 8
  %4 = getelementptr inbounds nuw %"class.icu_77::ErrorCode", ptr %3, i32 0, i32 1
  %5 = load i32, ptr %4, align 8, !tbaa !12
  %6 = call noundef signext i8 @_ZL9U_FAILURE10UErrorCode(i32 noundef %5)
  ret i8 %6
}

; Function Attrs: mustprogress nounwind uwtable
define void @_ZN6icu_7716IcuToolErrorCodeD2Ev(ptr noundef nonnull align 8 dereferenceable(24) %0) unnamed_addr #0 align 2 personality ptr @__gxx_personality_v0 {
  %2 = alloca ptr, align 8
  store ptr %0, ptr %2, align 8, !tbaa !3
  %3 = load ptr, ptr %2, align 8
  store ptr getelementptr inbounds inrange(-16, 24) ({ [5 x ptr] }, ptr @_ZTVN6icu_7716IcuToolErrorCodeE, i32 0, i32 0, i32 2), ptr %3, align 8, !tbaa !8
  %4 = invoke noundef signext i8 @_ZNK6icu_779ErrorCode9isFailureEv(ptr noundef nonnull align 8 dereferenceable(12) %3)
          to label %5 unwind label %13

5:                                                ; preds = %1
  %6 = icmp ne i8 %4, 0
  br i1 %6, label %7, label %12

7:                                                ; preds = %5
  %8 = load ptr, ptr %3, align 8, !tbaa !8
  %9 = getelementptr inbounds ptr, ptr %8, i64 2
  %10 = load ptr, ptr %9, align 8
  invoke void %10(ptr noundef nonnull align 8 dereferenceable(24) %3)
          to label %11 unwind label %13

11:                                               ; preds = %7
  br label %12

12:                                               ; preds = %11, %5
  call void @_ZN6icu_779ErrorCodeD2Ev(ptr noundef nonnull align 8 dereferenceable(12) %3) #14
  ret void

13:                                               ; preds = %7, %1
  %14 = landingpad { ptr, i32 }
          catch ptr null
  %15 = extractvalue { ptr, i32 } %14, 0
  call void @__clang_call_terminate(ptr %15) #15
  unreachable
}