; Function Attrs: mustprogress nounwind uwtable
define void @_ZN6icu_7716IcuToolErrorCodeD2Ev(ptr noundef nonnull align 8 dereferenceable(24) initializes((0, 8)) %0) unnamed_addr #0 align 2 personality ptr @__gxx_personality_v0 {
  store ptr getelementptr inbounds nuw inrange(-16, 24) (i8, ptr @_ZTVN6icu_7716IcuToolErrorCodeE, i64 16), ptr %0, align 8, !tbaa !3
  %2 = getelementptr inbounds nuw i8, ptr %0, i64 8
  %3 = load i32, ptr %2, align 8, !tbaa !6
  %4 = icmp slt i32 %3, 1
  br i1 %4, label %6, label %5

5:                                                ; preds = %1
  invoke void @_ZNK6icu_7716IcuToolErrorCode13handleFailureEv(ptr noundef nonnull align 8 dereferenceable(24) %0)
          to label %.unreachable unwind label %7

.unreachable:                                     ; preds = %5
  unreachable

6:                                                ; preds = %1
  tail call void @_ZN6icu_779ErrorCodeD2Ev(ptr noundef nonnull align 8 dereferenceable(12) %0) #23
  ret void

7:                                                ; preds = %5
  %8 = landingpad { ptr, i32 }
          catch ptr null
  %9 = extractvalue { ptr, i32 } %8, 0
  tail call void @__clang_call_terminate(ptr %9) #24
  unreachable
}